; Function Attrs: nofree nosync nounwind memory(readwrite, inaccessiblemem: none) uwtable
define i32 @Gia_ManSifDelay_rec(ptr noundef readonly captures(none) %0, ptr noundef %1, ptr noundef readonly captures(none) %2, ptr noundef readonly captures(none) %3, i32 noundef %4) local_unnamed_addr #5 {
  %6 = getelementptr inbounds nuw i8, ptr %0, i64 616
  %7 = load ptr, ptr %6, align 8, !tbaa !3
  %8 = getelementptr i8, ptr %0, i64 32
  %.val.i.i = load ptr, ptr %8, align 8, !tbaa !28
  %9 = ptrtoint ptr %1 to i64
  %10 = ptrtoint ptr %.val.i.i to i64
  %11 = sub i64 %9, %10
  %12 = sdiv exact i64 %11, 12
  %sext.i.i = shl i64 %12, 32
  %13 = ashr exact i64 %sext.i.i, 30
  %14 = getelementptr inbounds i8, ptr %7, i64 %13
  %15 = load i32, ptr %14, align 4, !tbaa !29
  %16 = getelementptr inbounds nuw i8, ptr %0, i64 176
  %17 = load i32, ptr %16, align 8, !tbaa !30
  %.not.i = icmp eq i32 %15, %17
  br i1 %.not.i, label %Gia_ObjUpdateTravIdCurrent.exit, label %18

18:                                               ; preds = %5
  store i32 %17, ptr %14, align 4, !tbaa !29
  %.val38 = load i64, ptr %1, align 4
  %19 = and i64 %.val38, 2147483648
  %.not.i39 = icmp ne i64 %19, 0
  %20 = and i64 %.val38, 536870911
  %21 = icmp eq i64 %20, 536870911
  %narrow.i.not = or i1 %.not.i39, %21
  br i1 %narrow.i.not, label %Gia_ObjUpdateTravIdCurrent.exit, label %22

22:                                               ; preds = %18
  %23 = trunc i64 %12 to i32
  %24 = mul nsw i32 %4, %23
  %25 = getelementptr i8, ptr %2, i64 8
  %.val37 = load ptr, ptr %25, align 8, !tbaa !39
  %26 = sext i32 %24 to i64
  %27 = getelementptr inbounds i32, ptr %.val37, i64 %26
  %28 = load i32, ptr %27, align 4, !tbaa !29
  %.not3242 = icmp slt i32 %28, 1
  %.phi.trans.insert = getelementptr i8, ptr %3, i64 8
  br i1 %.not3242, label %.._crit_edge_crit_edge, label %.lr.ph

.._crit_edge_crit_edge:                           ; preds = %22
  %.val35.pre = load ptr, ptr %.phi.trans.insert, align 8, !tbaa !39
  br label %._crit_edge

.lr.ph:                                           ; preds = %22, %.lr.ph
  %indvars.iv = phi i64 [ %indvars.iv.next, %.lr.ph ], [ 1, %22 ]
  %.045 = phi i32 [ %35, %.lr.ph ], [ 0, %22 ]
  %.02844 = phi i32 [ %41, %.lr.ph ], [ -1000010000, %22 ]
  %29 = getelementptr inbounds nuw i32, ptr %27, i64 %indvars.iv
  %30 = load i32, ptr %29, align 4, !tbaa !29
  %31 = ashr i32 %30, 8
  %.val34 = load ptr, ptr %8, align 8, !tbaa !28
  %32 = sext i32 %31 to i64
  %33 = getelementptr inbounds %struct.Gia_Obj_t_, ptr %.val34, i64 %32
  %34 = tail call i32 @Gia_ManSifDelay_rec(ptr noundef nonnull %0, ptr noundef %33, ptr noundef %2, ptr noundef %3, i32 noundef %4)
  %35 = add nsw i32 %34, %.045
  %36 = load i32, ptr %29, align 4, !tbaa !29
  %37 = ashr i32 %36, 8
  %.val36 = load ptr, ptr %.phi.trans.insert, align 8, !tbaa !39
  %38 = sext i32 %37 to i64
  %39 = getelementptr inbounds i32, ptr %.val36, i64 %38
  %40 = load i32, ptr %39, align 4, !tbaa !29
  %41 = tail call noundef i32 @llvm.smax.i32(i32 %.02844, i32 %40)
  %indvars.iv.next = add nuw nsw i64 %indvars.iv, 1
  %42 = load i32, ptr %27, align 4, !tbaa !29
  %43 = sext i32 %42 to i64
  %.not32.not = icmp slt i64 %indvars.iv, %43
  br i1 %.not32.not, label %.lr.ph, label %._crit_edge.loopexit, !llvm.loop !96

._crit_edge.loopexit:                             ; preds = %.lr.ph
  %.val.pre = load ptr, ptr %8, align 8, !tbaa !28
  %.pre = ptrtoint ptr %.val.pre to i64
  %.pre51 = sub i64 %9, %.pre
  %.pre53 = sdiv exact i64 %.pre51, 12
  %.pre55 = shl i64 %.pre53, 32
  %.pre56 = ashr exact i64 %.pre55, 30
  br label %._crit_edge

._crit_edge:                                      ; preds = %.._crit_edge_crit_edge, %._crit_edge.loopexit
  %.pre-phi57 = phi i64 [ %13, %.._crit_edge_crit_edge ], [ %.pre56, %._crit_edge.loopexit ]
  %.val35 = phi ptr [ %.val35.pre, %.._crit_edge_crit_edge ], [ %.val36, %._crit_edge.loopexit ]
  %.028.lcssa = phi i32 [ -1000010000, %.._crit_edge_crit_edge ], [ %41, %._crit_edge.loopexit ]
  %.0.lcssa = phi i32 [ 0, %.._crit_edge_crit_edge ], [ %35, %._crit_edge.loopexit ]
  %44 = getelementptr inbounds i8, ptr %.val35, i64 %.pre-phi57
  %45 = load i32, ptr %44, align 4, !tbaa !29
  %46 = icmp sge i32 %.028.lcssa, %45
  %47 = zext i1 %46 to i32
  %48 = add nsw i32 %.0.lcssa, %47
  br label %Gia_ObjUpdateTravIdCurrent.exit

Gia_ObjUpdateTravIdCurrent.exit:                  ; preds = %5, %18, %._crit_edge
  %.029 = phi i32 [ %48, %._crit_edge ], [ 0, %18 ], [ 0, %5 ]
  ret i32 %.029
}